; Function Attrs: mustprogress uwtable
define void @_ZN32pxrInternal_v0_24__pxrReserved__31UsdImagingDataSourceXformMatrix13GetTypedValueEf(ptr dead_on_unwind noalias writable sret(%"class.pxrInternal_v0_24__pxrReserved__::GfMatrix4d") align 8 %0, ptr noundef nonnull align 8 dereferenceable(48) %1, float noundef %2) unnamed_addr #0 align 2 {
  %4 = getelementptr inbounds nuw i8, ptr %1, i64 40
  %5 = load ptr, ptr %4, align 8
  %6 = load ptr, ptr %5, align 8
  %7 = getelementptr inbounds nuw i8, ptr %6, i64 16
  %8 = load ptr, ptr %7, align 8
  %9 = tail call double %8(ptr noundef nonnull align 8 dereferenceable(8) %5)
  %10 = fcmp ord double %9, 0.000000e+00
  %11 = fpext float %2 to double
  %12 = fadd double %9, %11
  %storemerge = select i1 %10, double %12, double %9
  %13 = getelementptr inbounds nuw i8, ptr %1, i64 8
  %14 = tail call noundef zeroext i1 @_ZNK32pxrInternal_v0_24__pxrReserved__16UsdGeomXformable10XformQuery22GetLocalTransformationEPNS_10GfMatrix4dENS_11UsdTimeCodeE(ptr noundef nonnull align 8 dereferenceable(25) %13, ptr noundef %0, double %storemerge)
  ret void
}